ASxxxx Linker V03.00/V05.40 + sdld,  page 1.
Hexadecimal  [32-Bits]

Area                                    Addr        Size        Decimal Bytes (Attributes)
--------------------------------        ----        ----        ------- ----- ------------
CABS                                00000000    00000000 =           0. bytes (ABS,CON,CODE)

      Value  Global                              Global Defined In Module
      -----  --------------------------------   ------------------------
C:   00000000  l_BIT_BANK                      
C:   00000000  l_CABS                          
C:   00000000  l_GSINIT1                       
C:   00000000  l_GSINIT5                       
C:   00000000  l_IABS                          
C:   00000000  l_ISEG                          
C:   00000000  l_PSEG                          
C:   00000000  l_REG_BANK_1                    
C:   00000000  l_REG_BANK_2                    
C:   00000000  l_REG_BANK_3                    
C:   00000000  l_RSEG                          
C:   00000000  l_RSEG0                         
C:   00000000  l_RSEG1                         
C:   00000000  l_XABS                          
C:   00000000  l_XINIT                         
C:   00000000  l_XISEG                         
C:   00000000  l_XSEG                          
C:   00000000  l__CODE                         
C:   00000000  s_BSEG                          
C:   00000000  s_CABS                          
C:   00000000  s_DSEG                          
C:   00000000  s_HOME                          
C:   00000000  s_IABS                          
C:   00000000  s_ISEG                          
C:   00000000  s_REG_BANK_0                    
C:   00000000  s_RSEG                          
C:   00000000  s_RSEG0                         
C:   00000000  s_RSEG1                         
C:   00000000  s_XABS                          
C:   00000001  l_BSEG                          
C:   00000001  l_BSEG_BYTES                    
C:   00000001  s_PSEG                          
C:   00000001  s_XISEG                         
C:   00000001  s_XSEG                          
C:   00000003  l_GSFINAL                       
C:   00000003  l_GSINIT0                       
C:   00000003  l_OSEG                          
C:   00000006  l_HOME                          
C:   00000006  s_GSINIT0                       
C:   00000008  l_REG_BANK_0                    
C:   00000008  s_REG_BANK_1                    
C:   00000009  s_GSINIT1                       
C:   00000009  s_GSINIT2                       
C:   0000000A  l_GSINIT2                       
C:   00000010  s_OSEG                          
C:   00000010  s_REG_BANK_2                    
C:   00000013  s_GSINIT3                       
C:   00000015  l_GSINIT                        
C:   00000018  s_BIT_BANK                      
C:   00000018  s_REG_BANK_3                    
ASxxxx Linker V03.00/V05.40 + sdld,  page 2.
Hexadecimal  [32-Bits]

Area                                    Addr        Size        Decimal Bytes (Attributes)
--------------------------------        ----        ----        ------- ----- ------------
CABS                                00000000    00000000 =           0. bytes (ABS,CON,CODE)

      Value  Global                              Global Defined In Module
      -----  --------------------------------   ------------------------
C:   00000020  s_BSEG_BYTES                    
C:   00000020  s__CODE                         
C:   00000021  s_SSEG                          
C:   00000022  l_GSINIT3                       
C:   0000002A  l_GSINIT4                       
C:   00000035  s_GSINIT4                       
C:   0000005F  s_GSINIT                        
C:   0000005F  s_GSINIT5                       
C:   00000069  l_CONST                         
C:   00000073  l_DSEG                          
C:   00000074  s_GSFINAL                       
C:   00000077  s_CSEG                          
C:   000000DF  l_SSEG                          
C:   00000100  l_IRAM                          
C:   00000717  l_CSEG                          
C:   0000078E  s_CONST                         
C:   000007F7  s_XINIT                         

ASxxxx Linker V03.00/V05.40 + sdld,  page 3.
Hexadecimal  [32-Bits]

Area                                    Addr        Size        Decimal Bytes (Attributes)
--------------------------------        ----        ----        ------- ----- ------------
.  .ABS.                            00000000    00000000 =           0. bytes (ABS,CON)

      Value  Global                              Global Defined In Module
      -----  --------------------------------   ------------------------
     00000000  .__.ABS.                           _startup
     00000080  _IOA                               setupdat
     00000080  _PA0                               setupdat
     00000081  _PA1                               setupdat
     00000081  _SP                                setupdat
     00000082  _DPL                               setupdat
     00000082  _PA2                               setupdat
     00000083  _DPH                               setupdat
     00000083  _PA3                               setupdat
     00000084  _DPL1                              setupdat
     00000084  _PA4                               setupdat
     00000085  _DPH1                              setupdat
     00000085  _PA5                               setupdat
     00000086  _DPS                               setupdat
     00000086  _PA6                               setupdat
     00000087  _PA7                               setupdat
     00000087  _PCON                              setupdat
     00000088  _IT0                               setupdat
     00000088  _TCON                              setupdat
     00000089  _IE0                               setupdat
     00000089  _TMOD                              setupdat
     0000008A  _IT1                               setupdat
     0000008A  _TL0                               setupdat
     0000008B  _IE1                               setupdat
     0000008B  _TL1                               setupdat
     0000008C  _TH0                               setupdat
     0000008C  _TR0                               setupdat
     0000008D  _TF0                               setupdat
     0000008D  _TH1                               setupdat
     0000008E  _CKCON                             setupdat
     0000008E  _TR1                               setupdat
     0000008F  _TF1                               setupdat
     00000090  _IOB                               setupdat
     00000090  _PB0                               setupdat
     00000091  _EXIF                              setupdat
     00000091  _PB1                               setupdat
     00000092  _PB2                               setupdat
     00000092  __XPAGE                            setupdat
     00000093  _PB3                               setupdat
     00000094  _PB4                               setupdat
     00000095  _PB5                               setupdat
     00000096  _PB6                               setupdat
     00000097  _PB7                               setupdat
     00000098  _RI                                setupdat
     00000098  _SCON0                             setupdat
     00000099  _SBUF0                             setupdat
     00000099  _TI                                setupdat
     0000009A  _AUTOPTRH1                         setupdat
     0000009A  _RB8                               setupdat
     0000009B  _AUTOPTRL1                         setupdat
ASxxxx Linker V03.00/V05.40 + sdld,  page 4.
Hexadecimal  [32-Bits]

Area                                    Addr        Size        Decimal Bytes (Attributes)
--------------------------------        ----        ----        ------- ----- ------------
.  .ABS.                            00000000    00000000 =           0. bytes (ABS,CON)

      Value  Global                              Global Defined In Module
      -----  --------------------------------   ------------------------
     0000009B  _TB8                               setupdat
     0000009C  _REN                               setupdat
     0000009D  _AUTOPTRH2                         setupdat
     0000009D  _SM2                               setupdat
     0000009E  _AUTOPTRL2                         setupdat
     0000009E  _SM1                               setupdat
     0000009F  _SM0                               setupdat
     000000A0  _IOC                               setupdat
     000000A0  _PC0                               setupdat
     000000A1  _INT2CLR                           setupdat
     000000A1  _PC1                               setupdat
     000000A2  _INT4CLR                           setupdat
     000000A2  _PC2                               setupdat
     000000A3  _PC3                               setupdat
     000000A4  _PC4                               setupdat
     000000A5  _PC5                               setupdat
     000000A6  _PC6                               setupdat
     000000A7  _PC7                               setupdat
     000000A8  _EX0                               setupdat
     000000A8  _IE                                setupdat
     000000A9  _ET0                               setupdat
     000000AA  _EP2468STAT                        setupdat
     000000AA  _EX1                               setupdat
     000000AB  _EP24FIFOFLGS                      setupdat
     000000AB  _ET1                               setupdat
     000000AC  _EP68FIFOFLGS                      setupdat
     000000AC  _ES0                               setupdat
     000000AD  _ET2                               setupdat
     000000AE  _ES1                               setupdat
     000000AF  _AUTOPTRSETUP                      setupdat
     000000AF  _EA                                setupdat
     000000B0  _IOD                               setupdat
     000000B0  _PD0                               setupdat
     000000B1  _IOE                               setupdat
     000000B1  _PD1                               setupdat
     000000B2  _OEA                               setupdat
     000000B2  _PD2                               setupdat
     000000B3  _OEB                               setupdat
     000000B3  _PD3                               setupdat
     000000B4  _OEC                               setupdat
     000000B4  _PD4                               setupdat
     000000B5  _OED                               setupdat
     000000B5  _PD5                               setupdat
     000000B6  _OEE                               setupdat
     000000B6  _PD6                               setupdat
     000000B7  _PD7                               setupdat
     000000B8  _IP                                setupdat
     000000B8  _PX0                               setupdat
     000000B9  _PT0                               setupdat
     000000BA  _EP01STAT                          setupdat
     000000BA  _PX1                               setupdat
ASxxxx Linker V03.00/V05.40 + sdld,  page 5.
Hexadecimal  [32-Bits]

Area                                    Addr        Size        Decimal Bytes (Attributes)
--------------------------------        ----        ----        ------- ----- ------------
.  .ABS.                            00000000    00000000 =           0. bytes (ABS,CON)

      Value  Global                              Global Defined In Module
      -----  --------------------------------   ------------------------
     000000BB  _GPIFTRIG                          setupdat
     000000BB  _PT1                               setupdat
     000000BC  _PS0                               setupdat
     000000BD  _GPIFSGLDATH                       setupdat
     000000BD  _PT2                               setupdat
     000000BE  _GPIFSGLDATLX                      setupdat
     000000BE  _PS1                               setupdat
     000000BF  _GPIFSGLDATLNOX                    setupdat
     000000C0  _RI1                               setupdat
     000000C0  _SCON1                             setupdat
     000000C1  _SBUF1                             setupdat
     000000C1  _TI1                               setupdat
     000000C2  _RB81                              setupdat
     000000C3  _TB81                              setupdat
     000000C4  _REN1                              setupdat
     000000C5  _SM21                              setupdat
     000000C6  _SM11                              setupdat
     000000C7  _SM01                              setupdat
     000000C8  _CP_RL2                            setupdat
     000000C8  _T2CON                             setupdat
     000000C9  _C_T2                              setupdat
     000000CA  _RCAP2L                            setupdat
     000000CA  _TR2                               setupdat
     000000CB  _EXEN2                             setupdat
     000000CB  _RCAP2H                            setupdat
     000000CC  _TCLK                              setupdat
     000000CC  _TL2                               setupdat
     000000CD  _RCLK                              setupdat
     000000CD  _TH2                               setupdat
     000000CE  _EXF2                              setupdat
     000000CF  _TF2                               setupdat
     000000D0  _P                                 setupdat
     000000D0  _PSW                               setupdat
     000000D1  _FL                                setupdat
     000000D2  _OV                                setupdat
     000000D3  _RS0                               setupdat
     000000D4  _RS1                               setupdat
     000000D5  _F0                                setupdat
     000000D6  _AC                                setupdat
     000000D7  _CY                                setupdat
     000000D8  _EICON                             setupdat
     000000DB  _INT6                              setupdat
     000000DC  _RESI                              setupdat
     000000DD  _ERESI                             setupdat
     000000DF  _SMOD1                             setupdat
     000000E0  _ACC                               setupdat
     000000E8  _EIE                               setupdat
     000000E8  _EUSB                              setupdat
     000000E9  _EI2C                              setupdat
     000000EA  _EIEX4                             setupdat
     000000EB  _EIEX5                             setupdat
ASxxxx Linker V03.00/V05.40 + sdld,  page 6.
Hexadecimal  [32-Bits]

Area                                    Addr        Size        Decimal Bytes (Attributes)
--------------------------------        ----        ----        ------- ----- ------------
.  .ABS.                            00000000    00000000 =           0. bytes (ABS,CON)

      Value  Global                              Global Defined In Module
      -----  --------------------------------   ------------------------
     000000EC  _EIEX6                             setupdat
     000000F0  _B                                 setupdat
     000000F5  _B_5                               _gptrget
     000000F6  _B_6                               _gptrget
     000000F7  _B_7                               _gptrget
     000000F8  _EIP                               setupdat
     000000F8  _PUSB                              setupdat
     000000F9  _PI2C                              setupdat
     000000FA  _EIPX4                             setupdat
     000000FB  _EIPX5                             setupdat
     000000FC  _EIPX6                             setupdat
     0000E400  _GPIF_WAVE_DATA                    setupdat
     0000E480  _RES_WAVEDATA_END                  setupdat
     0000E50D  _GPCR2                             setupdat
     0000E600  _CPUCS                             setupdat
     0000E601  _IFCONFIG                          setupdat
     0000E602  _PINFLAGSAB                        setupdat
     0000E603  _PINFLAGSCD                        setupdat
     0000E604  _FIFORESET                         setupdat
     0000E605  _BREAKPT                           setupdat
     0000E606  _BPADDRH                           setupdat
     0000E607  _BPADDRL                           setupdat
     0000E608  _UART230                           setupdat
     0000E609  _FIFOPINPOLAR                      setupdat
     0000E60A  _REVID                             setupdat
     0000E60B  _REVCTL                            setupdat
     0000E60C  _GPIFHOLDAMOUNT                    setupdat
     0000E610  _EP1OUTCFG                         setupdat
     0000E611  _EP1INCFG                          setupdat
     0000E612  _EP2CFG                            setupdat
     0000E613  _EP4CFG                            setupdat
     0000E614  _EP6CFG                            setupdat
     0000E615  _EP8CFG                            setupdat
     0000E618  _EP2FIFOCFG                        setupdat
     0000E619  _EP4FIFOCFG                        setupdat
     0000E61A  _EP6FIFOCFG                        setupdat
     0000E61B  _EP8FIFOCFG                        setupdat
     0000E620  _EP2AUTOINLENH                     setupdat
     0000E621  _EP2AUTOINLENL                     setupdat
     0000E622  _EP4AUTOINLENH                     setupdat
     0000E623  _EP4AUTOINLENL                     setupdat
     0000E624  _EP6AUTOINLENH                     setupdat
     0000E625  _EP6AUTOINLENL                     setupdat
     0000E626  _EP8AUTOINLENH                     setupdat
     0000E627  _EP8AUTOINLENL                     setupdat
     0000E628  _ECCCFG                            setupdat
     0000E629  _ECCRESET                          setupdat
     0000E62A  _ECC1B0                            setupdat
     0000E62B  _ECC1B1                            setupdat
     0000E62C  _ECC1B2                            setupdat
     0000E62D  _ECC2B0                            setupdat
ASxxxx Linker V03.00/V05.40 + sdld,  page 7.
Hexadecimal  [32-Bits]

Area                                    Addr        Size        Decimal Bytes (Attributes)
--------------------------------        ----        ----        ------- ----- ------------
.  .ABS.                            00000000    00000000 =           0. bytes (ABS,CON)

      Value  Global                              Global Defined In Module
      -----  --------------------------------   ------------------------
     0000E62E  _ECC2B1                            setupdat
     0000E62F  _ECC2B2                            setupdat
     0000E630  _EP2FIFOPFH                        setupdat
     0000E631  _EP2FIFOPFL                        setupdat
     0000E632  _EP4FIFOPFH                        setupdat
     0000E633  _EP4FIFOPFL                        setupdat
     0000E634  _EP6FIFOPFH                        setupdat
     0000E635  _EP6FIFOPFL                        setupdat
     0000E636  _EP8FIFOPFH                        setupdat
     0000E637  _EP8FIFOPFL                        setupdat
     0000E640  _EP2ISOINPKTS                      setupdat
     0000E641  _EP4ISOINPKTS                      setupdat
     0000E642  _EP6ISOINPKTS                      setupdat
     0000E643  _EP8ISOINPKTS                      setupdat
     0000E648  _INPKTEND                          setupdat
     0000E649  _OUTPKTEND                         setupdat
     0000E650  _EP2FIFOIE                         setupdat
     0000E651  _EP2FIFOIRQ                        setupdat
     0000E652  _EP4FIFOIE                         setupdat
     0000E653  _EP4FIFOIRQ                        setupdat
     0000E654  _EP6FIFOIE                         setupdat
     0000E655  _EP6FIFOIRQ                        setupdat
     0000E656  _EP8FIFOIE                         setupdat
     0000E657  _EP8FIFOIRQ                        setupdat
     0000E658  _IBNIE                             setupdat
     0000E659  _IBNIRQ                            setupdat
     0000E65A  _NAKIE                             setupdat
     0000E65B  _NAKIRQ                            setupdat
     0000E65C  _USBIE                             setupdat
     0000E65D  _USBIRQ                            setupdat
     0000E65E  _EPIE                              setupdat
     0000E65F  _EPIRQ                             setupdat
     0000E660  _GPIFIE                            setupdat
     0000E661  _GPIFIRQ                           setupdat
     0000E662  _USBERRIE                          setupdat
     0000E663  _USBERRIRQ                         setupdat
     0000E664  _ERRCNTLIM                         setupdat
     0000E665  _CLRERRCNT                         setupdat
     0000E666  _INT2IVEC                          setupdat
     0000E667  _INT4IVEC                          setupdat
     0000E668  _INTSETUP                          setupdat
     0000E670  _PORTACFG                          setupdat
     0000E671  _PORTCCFG                          setupdat
     0000E672  _PORTECFG                          setupdat
     0000E678  _I2CS                              setupdat
     0000E679  _I2DAT                             setupdat
     0000E67A  _I2CTL                             setupdat
     0000E67B  _XAUTODAT1                         setupdat
     0000E67C  _XAUTODAT2                         setupdat
     0000E67D  _UDMACRCH                          setupdat
     0000E67E  _UDMACRCL                          setupdat
ASxxxx Linker V03.00/V05.40 + sdld,  page 8.
Hexadecimal  [32-Bits]

Area                                    Addr        Size        Decimal Bytes (Attributes)
--------------------------------        ----        ----        ------- ----- ------------
.  .ABS.                            00000000    00000000 =           0. bytes (ABS,CON)

      Value  Global                              Global Defined In Module
      -----  --------------------------------   ------------------------
     0000E67F  _UDMACRCQUAL                       setupdat
     0000E680  _USBCS                             setupdat
     0000E681  _SUSPEND                           setupdat
     0000E682  _WAKEUPCS                          setupdat
     0000E683  _TOGCTL                            setupdat
     0000E684  _USBFRAMEH                         setupdat
     0000E685  _USBFRAMEL                         setupdat
     0000E686  _MICROFRAME                        setupdat
     0000E687  _FNADDR                            setupdat
     0000E68A  _EP0BCH                            setupdat
     0000E68B  _EP0BCL                            setupdat
     0000E68D  _EP1OUTBC                          setupdat
     0000E68F  _EP1INBC                           setupdat
     0000E690  _EP2BCH                            setupdat
     0000E691  _EP2BCL                            setupdat
     0000E694  _EP4BCH                            setupdat
     0000E695  _EP4BCL                            setupdat
     0000E698  _EP6BCH                            setupdat
     0000E699  _EP6BCL                            setupdat
     0000E69C  _EP8BCH                            setupdat
     0000E69D  _EP8BCL                            setupdat
     0000E6A0  _EP0CS                             setupdat
     0000E6A1  _EP1OUTCS                          setupdat
     0000E6A2  _EP1INCS                           setupdat
     0000E6A3  _EP2CS                             setupdat
     0000E6A4  _EP4CS                             setupdat
     0000E6A5  _EP6CS                             setupdat
     0000E6A6  _EP8CS                             setupdat
     0000E6A7  _EP2FIFOFLGS                       setupdat
     0000E6A8  _EP4FIFOFLGS                       setupdat
     0000E6A9  _EP6FIFOFLGS                       setupdat
     0000E6AA  _EP8FIFOFLGS                       setupdat
     0000E6AB  _EP2FIFOBCH                        setupdat
     0000E6AC  _EP2FIFOBCL                        setupdat
     0000E6AD  _EP4FIFOBCH                        setupdat
     0000E6AE  _EP4FIFOBCL                        setupdat
     0000E6AF  _EP6FIFOBCH                        setupdat
     0000E6B0  _EP6FIFOBCL                        setupdat
     0000E6B1  _EP8FIFOBCH                        setupdat
     0000E6B2  _EP8FIFOBCL                        setupdat
     0000E6B3  _SUDPTRH                           setupdat
     0000E6B4  _SUDPTRL                           setupdat
     0000E6B5  _SUDPTRCTL                         setupdat
     0000E6B8  _SETUPDAT                          setupdat
     0000E6C0  _GPIFWFSELECT                      setupdat
     0000E6C1  _GPIFIDLECS                        setupdat
     0000E6C2  _GPIFIDLECTL                       setupdat
     0000E6C3  _GPIFCTLCFG                        setupdat
     0000E6C4  _GPIFADRH                          setupdat
     0000E6C5  _GPIFADRL                          setupdat
     0000E6C6  _FLOWSTATE                         setupdat
ASxxxx Linker V03.00/V05.40 + sdld,  page 9.
Hexadecimal  [32-Bits]

Area                                    Addr        Size        Decimal Bytes (Attributes)
--------------------------------        ----        ----        ------- ----- ------------
.  .ABS.                            00000000    00000000 =           0. bytes (ABS,CON)

      Value  Global                              Global Defined In Module
      -----  --------------------------------   ------------------------
     0000E6C7  _FLOWLOGIC                         setupdat
     0000E6C8  _FLOWEQ0CTL                        setupdat
     0000E6C9  _FLOWEQ1CTL                        setupdat
     0000E6CA  _FLOWHOLDOFF                       setupdat
     0000E6CB  _FLOWSTB                           setupdat
     0000E6CC  _FLOWSTBEDGE                       setupdat
     0000E6CD  _FLOWSTBHPERIOD                    setupdat
     0000E6CE  _GPIFTCB3                          setupdat
     0000E6CF  _GPIFTCB2                          setupdat
     0000E6D0  _GPIFTCB1                          setupdat
     0000E6D1  _GPIFTCB0                          setupdat
     0000E6D2  _EP2GPIFFLGSEL                     setupdat
     0000E6D3  _EP2GPIFPFSTOP                     setupdat
     0000E6D4  _EP2GPIFTRIG                       setupdat
     0000E6DA  _EP4GPIFFLGSEL                     setupdat
     0000E6DB  _EP4GPIFPFSTOP                     setupdat
     0000E6DC  _EP4GPIFTRIG                       setupdat
     0000E6E2  _EP6GPIFFLGSEL                     setupdat
     0000E6E3  _EP6GPIFPFSTOP                     setupdat
     0000E6E4  _EP6GPIFTRIG                       setupdat
     0000E6EA  _EP8GPIFFLGSEL                     setupdat
     0000E6EB  _EP8GPIFPFSTOP                     setupdat
     0000E6EC  _EP8GPIFTRIG                       setupdat
     0000E6F0  _XGPIFSGLDATH                      setupdat
     0000E6F1  _XGPIFSGLDATLX                     setupdat
     0000E6F2  _XGPIFSGLDATLNOX                   setupdat
     0000E6F3  _GPIFREADYCFG                      setupdat
     0000E6F4  _GPIFREADYSTAT                     setupdat
     0000E6F5  _GPIFABORT                         setupdat
     0000E740  _EP0BUF                            setupdat
     0000E780  _EP1OUTBUF                         setupdat
     0000E7C0  _EP1INBUF                          setupdat
     0000F000  _EP2FIFOBUF                        setupdat
     0000F400  _EP4FIFOBUF                        setupdat
     0000F800  _EP6FIFOBUF                        setupdat
     0000FC00  _EP8FIFOBUF                        setupdat

ASxxxx Linker V03.00/V05.40 + sdld,  page 10.
Hexadecimal  [32-Bits]

Area                                    Addr        Size        Decimal Bytes (Attributes)
--------------------------------        ----        ----        ------- ----- ------------
BSEG_BYTES                          00000020    00000001 =           1. bytes (REL,CON)

      Value  Global                              Global Defined In Module
      -----  --------------------------------   ------------------------
ASxxxx Linker V03.00/V05.40 + sdld,  page 11.
Hexadecimal  [32-Bits]

Area                                    Addr        Size        Decimal Bytes (Attributes)
--------------------------------        ----        ----        ------- ----- ------------
REG_BANK_0                          00000000    00000008 =           8. bytes (REL,OVR)

      Value  Global                              Global Defined In Module
      -----  --------------------------------   ------------------------
ASxxxx Linker V03.00/V05.40 + sdld,  page 12.
Hexadecimal  [32-Bits]

Area                                    Addr        Size        Decimal Bytes (Attributes)
--------------------------------        ----        ----        ------- ----- ------------
DSEG                                00000000    00000073 =         115. bytes (REL,CON)

      Value  Global                              Global Defined In Module
      -----  --------------------------------   ------------------------
     00000008  _boot_ifconfig_snapshot            main
     0000000A  _self_powered                      setupdat
     0000000B  _remote_wakeup_allowed             setupdat
     0000000C  _pDevConfig                        setupdat
     0000000E  _pOtherConfig                      setupdat

ASxxxx Linker V03.00/V05.40 + sdld,  page 13.
Hexadecimal  [32-Bits]

Area                                    Addr        Size        Decimal Bytes (Attributes)
--------------------------------        ----        ----        ------- ----- ------------
OSEG                                00000010    00000003 =           3. bytes (REL,OVR)

      Value  Global                              Global Defined In Module
      -----  --------------------------------   ------------------------
     00000010  __gptrput_PARM_2                   _gptrput
     00000010  _handle_get_interface_PARM_2       setup_callbacks
     00000010  _handle_set_interface_PARM_2       setup_callbacks
ASxxxx Linker V03.00/V05.40 + sdld,  page 14.
Hexadecimal  [32-Bits]

Area                                    Addr        Size        Decimal Bytes (Attributes)
--------------------------------        ----        ----        ------- ----- ------------
SSEG                                00000021    000000DF =         223. bytes (REL,OVR)

      Value  Global                              Global Defined In Module
      -----  --------------------------------   ------------------------
     00000021  __start__stack                     main

ASxxxx Linker V03.00/V05.40 + sdld,  page 15.
Hexadecimal  [32-Bits]

Area                                    Addr        Size        Decimal Bytes (Attributes)
--------------------------------        ----        ----        ------- ----- ------------
HOME                                00000000    00000006 =           6. bytes (REL,CON,CODE)

      Value  Global                              Global Defined In Module
      -----  --------------------------------   ------------------------
C:   00000003  __sdcc_program_startup             main

ASxxxx Linker V03.00/V05.40 + sdld,  page 16.
Hexadecimal  [32-Bits]

Area                                    Addr        Size        Decimal Bytes (Attributes)
--------------------------------        ----        ----        ------- ----- ------------
GSINIT0                             00000006    00000003 =           3. bytes (REL,CON,CODE)

      Value  Global                              Global Defined In Module
      -----  --------------------------------   ------------------------
C:   00000006  __sdcc_gsinit_startup              

ASxxxx Linker V03.00/V05.40 + sdld,  page 17.
Hexadecimal  [32-Bits]

Area                                    Addr        Size        Decimal Bytes (Attributes)
--------------------------------        ----        ----        ------- ----- ------------
GSINIT2                             00000009    0000000A =          10. bytes (REL,CON,CODE)

      Value  Global                              Global Defined In Module
      -----  --------------------------------   ------------------------
ASxxxx Linker V03.00/V05.40 + sdld,  page 18.
Hexadecimal  [32-Bits]

Area                                    Addr        Size        Decimal Bytes (Attributes)
--------------------------------        ----        ----        ------- ----- ------------
GSINIT3                             00000013    00000022 =          34. bytes (REL,CON,CODE)

      Value  Global                              Global Defined In Module
      -----  --------------------------------   ------------------------
C:   00000013  __mcs51_genXINIT                   

ASxxxx Linker V03.00/V05.40 + sdld,  page 19.
Hexadecimal  [32-Bits]

Area                                    Addr        Size        Decimal Bytes (Attributes)
--------------------------------        ----        ----        ------- ----- ------------
GSINIT4                             00000035    0000002A =          42. bytes (REL,CON,CODE)

      Value  Global                              Global Defined In Module
      -----  --------------------------------   ------------------------
C:   00000035  __mcs51_genRAMCLEAR                
C:   0000003B  __mcs51_genXRAMCLEAR               

ASxxxx Linker V03.00/V05.40 + sdld,  page 20.
Hexadecimal  [32-Bits]

Area                                    Addr        Size        Decimal Bytes (Attributes)
--------------------------------        ----        ----        ------- ----- ------------
GSINIT                              0000005F    00000015 =          21. bytes (REL,CON,CODE)

      Value  Global                              Global Defined In Module
      -----  --------------------------------   ------------------------
ASxxxx Linker V03.00/V05.40 + sdld,  page 21.
Hexadecimal  [32-Bits]

Area                                    Addr        Size        Decimal Bytes (Attributes)
--------------------------------        ----        ----        ------- ----- ------------
GSFINAL                             00000074    00000003 =           3. bytes (REL,CON,CODE)

      Value  Global                              Global Defined In Module
      -----  --------------------------------   ------------------------
ASxxxx Linker V03.00/V05.40 + sdld,  page 22.
Hexadecimal  [32-Bits]

Area                                    Addr        Size        Decimal Bytes (Attributes)
--------------------------------        ----        ----        ------- ----- ------------
CSEG                                00000077    00000717 =        1815. bytes (REL,CON,CODE)

      Value  Global                              Global Defined In Module
      -----  --------------------------------   ------------------------
C:   00000077  _handle_vendorcommand              main
C:   000001EC  _main                              main
C:   000002ED  _handle_get_descriptor             setup_callbacks
C:   00000332  _handle_get_configuration          setup_callbacks
C:   00000336  _handle_set_configuration          setup_callbacks
C:   0000033A  _handle_get_interface              setup_callbacks
C:   00000354  _handle_set_interface              setup_callbacks
C:   00000358  _handle_reset_ep                   setup_callbacks
C:   00000359  __gptrput                          _gptrput
C:   00000374  _handle_setupdata                  setupdat
C:   00000492  _ep_addr                           setupdat
C:   000004E7  _handle_get_status                 setupdat
C:   00000576  _handle_clear_feature              setupdat
C:   000005E5  _handle_set_feature                setupdat
C:   0000066A  _handle_hispeed                    setupdat
C:   00000695  __handle_get_descriptor            setupdat
C:   0000076E  __gptrget                          _gptrget
C:   0000078A  ___sdcc_external_startup           _startup
ASxxxx Linker V03.00/V05.40 + sdld,  page 23.
Hexadecimal  [32-Bits]

Area                                    Addr        Size        Decimal Bytes (Attributes)
--------------------------------        ----        ----        ------- ----- ------------
CONST                               0000078E    00000069 =         105. bytes (REL,CON,CODE)

      Value  Global                              Global Defined In Module
      -----  --------------------------------   ------------------------
C:   0000078E  _dev_dscr                          descriptors
C:   000007A0  _cfg_dscr                          descriptors
C:   000007B9  _str0_dscr                         descriptors
C:   000007BD  _str1_dscr                         descriptors
C:   000007CD  _str2_dscr                         descriptors
C:   000007DF  _dev_dscr_ptr                      descriptors
C:   000007E1  _cfg_dscr_ptr                      descriptors
C:   000007E3  _highspd_dscr                      descriptors
C:   000007E5  _fullspd_dscr                      descriptors
C:   000007E7  _dev_qual_dscr                     descriptors
C:   000007E9  _string_dscrs                      descriptors
C:   000007EF  _USBDSCR                           descriptors
C:   000007F1  _dev_strings                       setup_callbacks

ASxxxx Linker V03.00/V05.40 + sdld,  page 24.

Files Linked                              [ module(s) ]

build/main.rel                            [  ]
build/descriptors.rel                     [  ]
build/setup_callbacks.rel                 [  ]


Libraries Linked                          [ object file ]

/opt/homebrew/bin/../share/sdcc/lib/small/mcs51.lib
                                          [ crtclear.rel ]
/opt/homebrew/bin/../share/sdcc/lib/small/mcs51.lib
                                          [ crtxinit.rel ]
/opt/homebrew/bin/../share/sdcc/lib/small/libsdcc.lib
                                          [ _gptrput.rel ]
/opt/homebrew/bin/../share/sdcc/lib/small/mcs51.lib
                                          [ crtxclear.rel ]
/Users/abn/install/max2771_fx2lp/FX2LP/fx2lib/lib/fx2.lib
                                          [ setupdat.rel ]
/opt/homebrew/bin/../share/sdcc/lib/small/mcs51.lib
                                          [ crtstart.rel ]
/opt/homebrew/bin/../share/sdcc/lib/small/libsdcc.lib
                                          [ _gptrget.rel ]
/opt/homebrew/bin/../share/sdcc/lib/small/libsdcc.lib
                                          [ _startup.rel ]

ASxxxx Linker V03.00/V05.40 + sdld,  page 25.

User Base Address Definitions

HOME = 0x0000
XSEG = 0x0001
PSEG = 0x0001
ISEG = 0x0000
BSEG = 0x0000

